; ModuleID = '45/2184.c'
source_filename = "45/2184.c"
target datalayout = "e-m:e-p270:32:32-p271:32:32-p272:64:64-i64:64-f80:128-n8:16:32:64-S128"
target triple = "x86_64-pc-linux-gnu"

@.str = private unnamed_addr constant [5 x i8] c"%s%s\00", align 1
@.str.1 = private unnamed_addr constant [4 x i8] c"%d\0A\00", align 1

; Function Attrs: noinline nounwind uwtable
define dso_local void @main() #0 {
  %1 = alloca [50 x i8], align 16
  %2 = alloca [50 x i8], align 16
  %3 = alloca i32, align 4
  %4 = alloca i32, align 4
  %5 = alloca i32, align 4
  %6 = getelementptr inbounds [50 x i8], [50 x i8]* %1, i64 0, i64 0
  %7 = getelementptr inbounds [50 x i8], [50 x i8]* %2, i64 0, i64 0
  %8 = call i32 (i8*, ...) @__isoc99_scanf(i8* getelementptr inbounds ([5 x i8], [5 x i8]* @.str, i64 0, i64 0), i8* %6, i8* %7)
  store i32 0, i32* %3, align 4
  br label %9

9:                                                ; preds = %49, %0
  %10 = load i32, i32* %3, align 4
  %11 = sext i32 %10 to i64
  %12 = getelementptr inbounds [50 x i8], [50 x i8]* %2, i64 0, i64 0
  %13 = call i64 @strlen(i8* %12) #3
  %14 = getelementptr inbounds [50 x i8], [50 x i8]* %1, i64 0, i64 0
  %15 = call i64 @strlen(i8* %14) #3
  %16 = sub i64 %13, %15
  %17 = icmp ule i64 %11, %16
  br i1 %17, label %18, label %52

18:                                               ; preds = %9
  store i32 1, i32* %5, align 4
  store i32 0, i32* %4, align 4
  br label %19

19:                                               ; preds = %41, %18
  %20 = load i32, i32* %4, align 4
  %21 = sext i32 %20 to i64
  %22 = getelementptr inbounds [50 x i8], [50 x i8]* %1, i64 0, i64 0
  %23 = call i64 @strlen(i8* %22) #3
  %24 = icmp ult i64 %21, %23
  br i1 %24, label %25, label %44

25:                                               ; preds = %19
  %26 = load i32, i32* %3, align 4
  %27 = load i32, i32* %4, align 4
  %28 = add nsw i32 %26, %27
  %29 = sext i32 %28 to i64
  %30 = getelementptr inbounds [50 x i8], [50 x i8]* %2, i64 0, i64 %29
  %31 = load i8, i8* %30, align 1
  %32 = sext i8 %31 to i32
  %33 = load i32, i32* %4, align 4
  %34 = sext i32 %33 to i64
  %35 = getelementptr inbounds [50 x i8], [50 x i8]* %1, i64 0, i64 %34
  %36 = load i8, i8* %35, align 1
  %37 = sext i8 %36 to i32
  %38 = icmp ne i32 %32, %37
  br i1 %38, label %39, label %40

39:                                               ; preds = %25
  store i32 0, i32* %5, align 4
  br label %40

40:                                               ; preds = %39, %25
  br label %41

41:                                               ; preds = %40
  %42 = load i32, i32* %4, align 4
  %43 = add nsw i32 %42, 1
  store i32 %43, i32* %4, align 4
  br label %19

44:                                               ; preds = %19
  %45 = load i32, i32* %5, align 4
  %46 = icmp ne i32 %45, 0
  br i1 %46, label %47, label %48

47:                                               ; preds = %44
  br label %52

48:                                               ; preds = %44
  br label %49

49:                                               ; preds = %48
  %50 = load i32, i32* %3, align 4
  %51 = add nsw i32 %50, 1
  store i32 %51, i32* %3, align 4
  br label %9

52:                                               ; preds = %47, %9
  %53 = load i32, i32* %3, align 4
  %54 = call i32 (i8*, ...) @printf(i8* getelementptr inbounds ([4 x i8], [4 x i8]* @.str.1, i64 0, i64 0), i32 %53)
  ret void
}

declare dso_local i32 @__isoc99_scanf(i8*, ...) #1

; Function Attrs: nounwind readonly
declare dso_local i64 @strlen(i8*) #2

declare dso_local i32 @printf(i8*, ...) #1


!llvm.module.flags = !{!0}
!llvm.ident = !{!1}

!0 = !{i32 1, !"wchar_size", i32 4}
!1 = !{!"clang version 10.0.0-4ubuntu1 "}
